
FlashLight.elf:     file format elf32-avr

Sections:
Idx Name          Size      VMA       LMA       File off  Algn
  0 .text         000001e4  00000000  00000000  00000074  2**1
                  CONTENTS, ALLOC, LOAD, READONLY, CODE
  1 .data         00000000  00800060  00800060  0000025b  2**0
                  CONTENTS, ALLOC, LOAD, DATA
  2 .eeprom       00000003  00810000  00810000  00000258  2**0
                  CONTENTS, ALLOC, LOAD, DATA
  3 .comment      00000030  00000000  00000000  0000025b  2**0
                  CONTENTS, READONLY
  4 .note.gnu.avr.deviceinfo 0000003c  00000000  00000000  0000028c  2**2
                  CONTENTS, READONLY

Disassembly of section .text:

00000000 <__vectors>:
   0:	10 c0       	rjmp	.+32     	; 0x22 <__ctors_end>
   2:	15 c0       	rjmp	.+42     	; 0x2e <__bad_interrupt>
   4:	14 c0       	rjmp	.+40     	; 0x2e <__bad_interrupt>
   6:	13 c0       	rjmp	.+38     	; 0x2e <__bad_interrupt>
   8:	12 c0       	rjmp	.+36     	; 0x2e <__bad_interrupt>
   a:	11 c0       	rjmp	.+34     	; 0x2e <__bad_interrupt>
   c:	10 c0       	rjmp	.+32     	; 0x2e <__bad_interrupt>
   e:	0f c0       	rjmp	.+30     	; 0x2e <__bad_interrupt>
  10:	0e c0       	rjmp	.+28     	; 0x2e <__bad_interrupt>
  12:	0d c0       	rjmp	.+26     	; 0x2e <__bad_interrupt>
  14:	8e c0       	rjmp	.+284    	; 0x132 <__stack+0x93>
  16:	8f c0       	rjmp	.+286    	; 0x136 <__stack+0x97>
  18:	90 c0       	rjmp	.+288    	; 0x13a <__stack+0x9b>
  1a:	91 c0       	rjmp	.+290    	; 0x13e <__stack+0x9f>
  1c:	b6 c0       	rjmp	.+364    	; 0x18a <__stack+0xeb>
  1e:	91 c0       	rjmp	.+290    	; 0x142 <__stack+0xa3>
  20:	92 c0       	rjmp	.+292    	; 0x146 <__stack+0xa7>

00000022 <__ctors_end>:
  22:	11 24       	eor	r1, r1
  24:	1f be       	out	0x3f, r1	; 63
  26:	cf e9       	ldi	r28, 0x9F	; 159
  28:	cd bf       	out	0x3d, r28	; 61
  2a:	11 d0       	rcall	.+34     	; 0x4e <main>
  2c:	d9 c0       	rjmp	.+434    	; 0x1e0 <_exit>

0000002e <__bad_interrupt>:
  2e:	e8 cf       	rjmp	.-48     	; 0x0 <__vectors>

00000030 <_Z7adcreadv>:
  30:	36 9a       	sbi	0x06, 6	; 6
  32:	36 99       	sbic	0x06, 6	; 6
  34:	fe cf       	rjmp	.-4      	; 0x32 <_Z7adcreadv+0x2>
  36:	85 b1       	in	r24, 0x05	; 5
  38:	08 95       	ret

0000003a <_Z9pwm_setupv>:
  3a:	83 b7       	in	r24, 0x33	; 51
  3c:	82 60       	ori	r24, 0x02	; 2
  3e:	83 bf       	out	0x33, r24	; 51
  40:	8f b5       	in	r24, 0x2f	; 47
  42:	83 60       	ori	r24, 0x03	; 3
  44:	8f bd       	out	0x2f, r24	; 47
  46:	8f b5       	in	r24, 0x2f	; 47
  48:	80 62       	ori	r24, 0x20	; 32
  4a:	8f bd       	out	0x2f, r24	; 47
  4c:	08 95       	ret

0000004e <main>:
  4e:	cf 93       	push	r28
  50:	df 93       	push	r29
  52:	cd b7       	in	r28, 0x3d	; 61
  54:	dd 27       	eor	r29, r29
  56:	c3 50       	subi	r28, 0x03	; 3
  58:	cd bf       	out	0x3d, r28	; 61
  5a:	81 e6       	ldi	r24, 0x61	; 97
  5c:	87 b9       	out	0x07, r24	; 7
  5e:	84 ec       	ldi	r24, 0xC4	; 196
  60:	86 b9       	out	0x06, r24	; 6
  62:	eb df       	rcall	.-42     	; 0x3a <_Z9pwm_setupv>
  64:	b9 9a       	sbi	0x17, 1	; 23
  66:	19 bc       	out	0x29, r1	; 41
  68:	82 e0       	ldi	r24, 0x02	; 2
  6a:	90 e0       	ldi	r25, 0x00	; 0
  6c:	a5 d0       	rcall	.+330    	; 0x1b8 <eeprom_read_byte>
  6e:	8b 83       	std	Y+3, r24	; 0x03
  70:	8b 81       	ldd	r24, Y+3	; 0x03
  72:	8a 83       	std	Y+2, r24	; 0x02
  74:	8f ef       	ldi	r24, 0xFF	; 255
  76:	89 83       	std	Y+1, r24	; 0x01
  78:	8b 81       	ldd	r24, Y+3	; 0x03
  7a:	87 30       	cpi	r24, 0x07	; 7
  7c:	20 f0       	brcs	.+8      	; 0x86 <main+0x38>
  7e:	1b 82       	std	Y+3, r1	; 0x03
  80:	e1 99       	sbic	0x1c, 1	; 28
  82:	fe cf       	rjmp	.-4      	; 0x80 <main+0x32>
  84:	18 c0       	rjmp	.+48     	; 0xb6 <__stack+0x17>
  86:	8b 81       	ldd	r24, Y+3	; 0x03
  88:	8f 5f       	subi	r24, 0xFF	; 255
  8a:	8b 83       	std	Y+3, r24	; 0x03
  8c:	e1 99       	sbic	0x1c, 1	; 28
  8e:	fe cf       	rjmp	.-4      	; 0x8c <main+0x3e>
  90:	6b 81       	ldd	r22, Y+3	; 0x03
  92:	82 e0       	ldi	r24, 0x02	; 2
  94:	90 e0       	ldi	r25, 0x00	; 0
  96:	97 d0       	rcall	.+302    	; 0x1c6 <eeprom_write_byte>
  98:	82 e0       	ldi	r24, 0x02	; 2
  9a:	89 bd       	out	0x29, r24	; 41
  9c:	2f ef       	ldi	r18, 0xFF	; 255
  9e:	4b ed       	ldi	r20, 0xDB	; 219
  a0:	85 e0       	ldi	r24, 0x05	; 5
  a2:	21 50       	subi	r18, 0x01	; 1
  a4:	40 40       	sbci	r20, 0x00	; 0
  a6:	80 40       	sbci	r24, 0x00	; 0
  a8:	e1 f7       	brne	.-8      	; 0xa2 <__stack+0x3>
  aa:	00 c0       	rjmp	.+0      	; 0xac <__stack+0xd>
  ac:	00 00       	nop
  ae:	8a 81       	ldd	r24, Y+2	; 0x02
  b0:	8b 83       	std	Y+3, r24	; 0x03
  b2:	e1 99       	sbic	0x1c, 1	; 28
  b4:	fe cf       	rjmp	.-4      	; 0xb2 <__stack+0x13>
  b6:	6b 81       	ldd	r22, Y+3	; 0x03
  b8:	82 e0       	ldi	r24, 0x02	; 2
  ba:	90 e0       	ldi	r25, 0x00	; 0
  bc:	84 d0       	rcall	.+264    	; 0x1c6 <eeprom_write_byte>
  be:	19 bc       	out	0x29, r1	; 41
  c0:	8b 81       	ldd	r24, Y+3	; 0x03
  c2:	8a 83       	std	Y+2, r24	; 0x02
  c4:	1f e7       	ldi	r17, 0x7F	; 127
  c6:	8a e0       	ldi	r24, 0x0A	; 10
  c8:	f8 2e       	mov	r15, r24
  ca:	02 e0       	ldi	r16, 0x02	; 2
  cc:	ee 24       	eor	r14, r14
  ce:	ea 94       	dec	r14
  d0:	9f e3       	ldi	r25, 0x3F	; 63
  d2:	d9 2e       	mov	r13, r25
  d4:	2f e1       	ldi	r18, 0x1F	; 31
  d6:	c2 2e       	mov	r12, r18
  d8:	3f e0       	ldi	r19, 0x0F	; 15
  da:	b3 2e       	mov	r11, r19
  dc:	a9 df       	rcall	.-174    	; 0x30 <_Z7adcreadv>
  de:	90 e0       	ldi	r25, 0x00	; 0
  e0:	a0 e0       	ldi	r26, 0x00	; 0
  e2:	b0 e0       	ldi	r27, 0x00	; 0
  e4:	81 59       	subi	r24, 0x91	; 145
  e6:	91 09       	sbc	r25, r1
  e8:	a1 09       	sbc	r26, r1
  ea:	b1 09       	sbc	r27, r1
  ec:	89 83       	std	Y+1, r24	; 0x01
  ee:	8b 81       	ldd	r24, Y+3	; 0x03
  f0:	86 30       	cpi	r24, 0x06	; 6
  f2:	a9 f0       	breq	.+42     	; 0x11e <__stack+0x7f>
  f4:	89 81       	ldd	r24, Y+1	; 0x01
  f6:	8a 30       	cpi	r24, 0x0A	; 10
  f8:	80 f4       	brcc	.+32     	; 0x11a <__stack+0x7b>
  fa:	8b 81       	ldd	r24, Y+3	; 0x03
  fc:	88 23       	and	r24, r24
  fe:	11 f0       	breq	.+4      	; 0x104 <__stack+0x65>
 100:	1b 82       	std	Y+3, r1	; 0x03
 102:	0d c0       	rjmp	.+26     	; 0x11e <__stack+0x7f>
 104:	19 bc       	out	0x29, r1	; 41
 106:	9f ef       	ldi	r25, 0xFF	; 255
 108:	2d ee       	ldi	r18, 0xED	; 237
 10a:	42 e0       	ldi	r20, 0x02	; 2
 10c:	91 50       	subi	r25, 0x01	; 1
 10e:	20 40       	sbci	r18, 0x00	; 0
 110:	40 40       	sbci	r20, 0x00	; 0
 112:	e1 f7       	brne	.-8      	; 0x10c <__stack+0x6d>
 114:	00 c0       	rjmp	.+0      	; 0x116 <__stack+0x77>
 116:	00 00       	nop
 118:	02 c0       	rjmp	.+4      	; 0x11e <__stack+0x7f>
 11a:	8a 81       	ldd	r24, Y+2	; 0x02
 11c:	8b 83       	std	Y+3, r24	; 0x03
 11e:	eb 81       	ldd	r30, Y+3	; 0x03
 120:	8e 2f       	mov	r24, r30
 122:	90 e0       	ldi	r25, 0x00	; 0
 124:	87 30       	cpi	r24, 0x07	; 7
 126:	91 05       	cpc	r25, r1
 128:	80 f5       	brcc	.+96     	; 0x18a <__stack+0xeb>
 12a:	fc 01       	movw	r30, r24
 12c:	e6 5f       	subi	r30, 0xF6	; 246
 12e:	ff 4f       	sbci	r31, 0xFF	; 255
 130:	09 94       	ijmp
 132:	09 bd       	out	0x29, r16	; 41
 134:	2b c0       	rjmp	.+86     	; 0x18c <__stack+0xed>
 136:	b9 bc       	out	0x29, r11	; 41
 138:	29 c0       	rjmp	.+82     	; 0x18c <__stack+0xed>
 13a:	c9 bc       	out	0x29, r12	; 41
 13c:	27 c0       	rjmp	.+78     	; 0x18c <__stack+0xed>
 13e:	d9 bc       	out	0x29, r13	; 41
 140:	25 c0       	rjmp	.+74     	; 0x18c <__stack+0xed>
 142:	e9 bc       	out	0x29, r14	; 41
 144:	23 c0       	rjmp	.+70     	; 0x18c <__stack+0xed>
 146:	89 81       	ldd	r24, Y+1	; 0x01
 148:	6f 2d       	mov	r22, r15
 14a:	2a d0       	rcall	.+84     	; 0x1a0 <__udivmodqi4>
 14c:	89 83       	std	Y+1, r24	; 0x01
 14e:	20 e0       	ldi	r18, 0x00	; 0
 150:	30 e0       	ldi	r19, 0x00	; 0
 152:	89 81       	ldd	r24, Y+1	; 0x01
 154:	90 e0       	ldi	r25, 0x00	; 0
 156:	82 17       	cp	r24, r18
 158:	93 07       	cpc	r25, r19
 15a:	c4 f0       	brlt	.+48     	; 0x18c <__stack+0xed>
 15c:	09 bd       	out	0x29, r16	; 41
 15e:	8f ef       	ldi	r24, 0xFF	; 255
 160:	9b ed       	ldi	r25, 0xDB	; 219
 162:	45 e0       	ldi	r20, 0x05	; 5
 164:	81 50       	subi	r24, 0x01	; 1
 166:	90 40       	sbci	r25, 0x00	; 0
 168:	40 40       	sbci	r20, 0x00	; 0
 16a:	e1 f7       	brne	.-8      	; 0x164 <__stack+0xc5>
 16c:	00 c0       	rjmp	.+0      	; 0x16e <__stack+0xcf>
 16e:	00 00       	nop
 170:	19 bc       	out	0x29, r1	; 41
 172:	8f ef       	ldi	r24, 0xFF	; 255
 174:	9b ed       	ldi	r25, 0xDB	; 219
 176:	45 e0       	ldi	r20, 0x05	; 5
 178:	81 50       	subi	r24, 0x01	; 1
 17a:	90 40       	sbci	r25, 0x00	; 0
 17c:	40 40       	sbci	r20, 0x00	; 0
 17e:	e1 f7       	brne	.-8      	; 0x178 <__stack+0xd9>
 180:	00 c0       	rjmp	.+0      	; 0x182 <__stack+0xe3>
 182:	00 00       	nop
 184:	2f 5f       	subi	r18, 0xFF	; 255
 186:	3f 4f       	sbci	r19, 0xFF	; 255
 188:	e4 cf       	rjmp	.-56     	; 0x152 <__stack+0xb3>
 18a:	19 bd       	out	0x29, r17	; 41
 18c:	8f ef       	ldi	r24, 0xFF	; 255
 18e:	9b e4       	ldi	r25, 0x4B	; 75
 190:	2d e1       	ldi	r18, 0x1D	; 29
 192:	81 50       	subi	r24, 0x01	; 1
 194:	90 40       	sbci	r25, 0x00	; 0
 196:	20 40       	sbci	r18, 0x00	; 0
 198:	e1 f7       	brne	.-8      	; 0x192 <__stack+0xf3>
 19a:	00 c0       	rjmp	.+0      	; 0x19c <__stack+0xfd>
 19c:	00 00       	nop
 19e:	9e cf       	rjmp	.-196    	; 0xdc <__stack+0x3d>

000001a0 <__udivmodqi4>:
 1a0:	99 1b       	sub	r25, r25
 1a2:	79 e0       	ldi	r23, 0x09	; 9
 1a4:	04 c0       	rjmp	.+8      	; 0x1ae <__udivmodqi4_ep>

000001a6 <__udivmodqi4_loop>:
 1a6:	99 1f       	adc	r25, r25
 1a8:	96 17       	cp	r25, r22
 1aa:	08 f0       	brcs	.+2      	; 0x1ae <__udivmodqi4_ep>
 1ac:	96 1b       	sub	r25, r22

000001ae <__udivmodqi4_ep>:
 1ae:	88 1f       	adc	r24, r24
 1b0:	7a 95       	dec	r23
 1b2:	c9 f7       	brne	.-14     	; 0x1a6 <__udivmodqi4_loop>
 1b4:	80 95       	com	r24
 1b6:	08 95       	ret

000001b8 <eeprom_read_byte>:
 1b8:	e1 99       	sbic	0x1c, 1	; 28
 1ba:	fe cf       	rjmp	.-4      	; 0x1b8 <eeprom_read_byte>
 1bc:	8e bb       	out	0x1e, r24	; 30
 1be:	e0 9a       	sbi	0x1c, 0	; 28
 1c0:	99 27       	eor	r25, r25
 1c2:	8d b3       	in	r24, 0x1d	; 29
 1c4:	08 95       	ret

000001c6 <eeprom_write_byte>:
 1c6:	26 2f       	mov	r18, r22

000001c8 <eeprom_write_r18>:
 1c8:	e1 99       	sbic	0x1c, 1	; 28
 1ca:	fe cf       	rjmp	.-4      	; 0x1c8 <eeprom_write_r18>
 1cc:	1c ba       	out	0x1c, r1	; 28
 1ce:	8e bb       	out	0x1e, r24	; 30
 1d0:	2d bb       	out	0x1d, r18	; 29
 1d2:	0f b6       	in	r0, 0x3f	; 63
 1d4:	f8 94       	cli
 1d6:	e2 9a       	sbi	0x1c, 2	; 28
 1d8:	e1 9a       	sbi	0x1c, 1	; 28
 1da:	0f be       	out	0x3f, r0	; 63
 1dc:	01 96       	adiw	r24, 0x01	; 1
 1de:	08 95       	ret

000001e0 <_exit>:
 1e0:	f8 94       	cli

000001e2 <__stop_program>:
 1e2:	ff cf       	rjmp	.-2      	; 0x1e2 <__stop_program>
